target datalayout = "e-m:e-p270:32:32-p271:32:32-p272:64:64-i64:64-i128:128-f80:128-n8:16:32:64-S128"
target triple = "x86_64-pc-linux-gnu"

%"struct.XStatHeap::XAtInitialize" = type { i64, i64 }
%"struct.XStatHeap::XAtMarkStart" = type { i64, i64, i64, i64 }
%"struct.XStatHeap::XAtMarkEnd" = type { i64, i64, i64, i64, i64, i64 }
%"struct.XStatHeap::XAtRelocateStart" = type { i64, i64, i64, i64, i64, i64 }
%class.XPageAllocatorStats = type { i64, i64, i64, i64, i64, i64, i64, i64, i64 }

@_ZN9XStatHeap14_at_initializeE = hidden global %"struct.XStatHeap::XAtInitialize" zeroinitializer, align 8
@_ZN9XStatHeap14_at_mark_startE = hidden global %"struct.XStatHeap::XAtMarkStart" zeroinitializer, align 8
@_ZN9XStatHeap12_at_mark_endE = hidden global %"struct.XStatHeap::XAtMarkEnd" zeroinitializer, align 8
@_ZN9XStatHeap18_at_relocate_startE = hidden global %"struct.XStatHeap::XAtRelocateStart" zeroinitializer, align 8

; Function Attrs: mustprogress nounwind uwtable
define hidden noundef i64 @_ZN9XStatHeap7garbageEm(i64 noundef %0) #1 align 2 {
  %2 = alloca i64, align 8
  store i64 %0, ptr %2, align 8
  %3 = load i64, ptr getelementptr inbounds (%"struct.XStatHeap::XAtMarkEnd", ptr @_ZN9XStatHeap12_at_mark_endE, i32 0, i32 5), align 8
  %4 = load i64, ptr %2, align 8
  %5 = sub i64 %3, %4
  ret i64 %5
}

; Function Attrs: mustprogress nounwind uwtable
define hidden noundef i64 @_ZN9XStatHeap9allocatedEmm(i64 noundef %0, i64 noundef %1) #1 align 2 {
  %3 = alloca i64, align 8
  %4 = alloca i64, align 8
  store i64 %0, ptr %3, align 8
  store i64 %1, ptr %4, align 8
  %5 = load i64, ptr %3, align 8
  %6 = load i64, ptr %4, align 8
  %7 = add i64 %5, %6
  %8 = load i64, ptr getelementptr inbounds (%"struct.XStatHeap::XAtMarkStart", ptr @_ZN9XStatHeap14_at_mark_startE, i32 0, i32 3), align 8
  %9 = sub i64 %7, %8
  ret i64 %9
}

; Function Attrs: mustprogress nounwind uwtable
define linkonce_odr hidden noundef i64 @_ZNK19XPageAllocatorStats9reclaimedEv(ptr noundef nonnull align 8 dereferenceable(72) %0) #1 comdat align 2 {
  %2 = alloca ptr, align 8
  store ptr %0, ptr %2, align 8
  %3 = load ptr, ptr %2, align 8
  %4 = getelementptr inbounds %class.XPageAllocatorStats, ptr %3, i32 0, i32 8
  %5 = load i64, ptr %4, align 8
  ret i64 %5
}

; Function Attrs: mustprogress nounwind uwtable
define hidden noundef i64 @_ZN9XStatHeap4freeEm(i64 noundef %0) #1 align 2 {
  %2 = alloca i64, align 8
  store i64 %0, ptr %2, align 8
  %3 = load i64, ptr getelementptr inbounds (%"struct.XStatHeap::XAtInitialize", ptr @_ZN9XStatHeap14_at_initializeE, i32 0, i32 1), align 8
  %4 = load i64, ptr %2, align 8
  %5 = sub i64 %3, %4
  ret i64 %5
}

; Function Attrs: mustprogress nounwind uwtable
define linkonce_odr hidden noundef i64 @_ZNK19XPageAllocatorStats4usedEv(ptr noundef nonnull align 8 dereferenceable(72) %0) #1 comdat align 2 {
  %2 = alloca ptr, align 8
  store ptr %0, ptr %2, align 8
  %3 = load ptr, ptr %2, align 8
  %4 = getelementptr inbounds %class.XPageAllocatorStats, ptr %3, i32 0, i32 5
  %5 = load i64, ptr %4, align 8
  ret i64 %5
}

; Function Attrs: mustprogress nounwind uwtable
define linkonce_odr hidden noundef i64 @_ZNK19XPageAllocatorStats8capacityEv(ptr noundef nonnull align 8 dereferenceable(72) %0) #1 comdat align 2 {
  %2 = alloca ptr, align 8
  store ptr %0, ptr %2, align 8
  %3 = load ptr, ptr %2, align 8
  %4 = getelementptr inbounds %class.XPageAllocatorStats, ptr %3, i32 0, i32 4
  %5 = load i64, ptr %4, align 8
  ret i64 %5
}

; Function Attrs: mustprogress nounwind uwtable
define hidden void @_ZN9XStatHeap21set_at_relocate_startERK19XPageAllocatorStats(ptr noundef nonnull align 8 dereferenceable(72) %0) #1 align 2 {
  %2 = alloca ptr, align 8
  store ptr %0, ptr %2, align 8
  %3 = load ptr, ptr %2, align 8
  %4 = call noundef i64 @_ZNK19XPageAllocatorStats8capacityEv(ptr noundef nonnull align 8 dereferenceable(72) %3)
  store i64 %4, ptr @_ZN9XStatHeap18_at_relocate_startE, align 8
  %5 = load ptr, ptr %2, align 8
  %6 = call noundef i64 @_ZNK19XPageAllocatorStats4usedEv(ptr noundef nonnull align 8 dereferenceable(72) %5)
  %7 = call noundef i64 @_ZN9XStatHeap4freeEm(i64 noundef %6)
  store i64 %7, ptr getelementptr inbounds (%"struct.XStatHeap::XAtRelocateStart", ptr @_ZN9XStatHeap18_at_relocate_startE, i32 0, i32 1), align 8
  %8 = load ptr, ptr %2, align 8
  %9 = call noundef i64 @_ZNK19XPageAllocatorStats4usedEv(ptr noundef nonnull align 8 dereferenceable(72) %8)
  store i64 %9, ptr getelementptr inbounds (%"struct.XStatHeap::XAtRelocateStart", ptr @_ZN9XStatHeap18_at_relocate_startE, i32 0, i32 2), align 8
  %10 = load ptr, ptr %2, align 8
  %11 = call noundef i64 @_ZNK19XPageAllocatorStats4usedEv(ptr noundef nonnull align 8 dereferenceable(72) %10)
  %12 = load ptr, ptr %2, align 8
  %13 = call noundef i64 @_ZNK19XPageAllocatorStats9reclaimedEv(ptr noundef nonnull align 8 dereferenceable(72) %12)
  %14 = call noundef i64 @_ZN9XStatHeap9allocatedEmm(i64 noundef %11, i64 noundef %13)
  store i64 %14, ptr getelementptr inbounds (%"struct.XStatHeap::XAtRelocateStart", ptr @_ZN9XStatHeap18_at_relocate_startE, i32 0, i32 3), align 8
  %15 = load ptr, ptr %2, align 8
  %16 = call noundef i64 @_ZNK19XPageAllocatorStats9reclaimedEv(ptr noundef nonnull align 8 dereferenceable(72) %15)
  %17 = call noundef i64 @_ZN9XStatHeap7garbageEm(i64 noundef %16)
  store i64 %17, ptr getelementptr inbounds (%"struct.XStatHeap::XAtRelocateStart", ptr @_ZN9XStatHeap18_at_relocate_startE, i32 0, i32 4), align 8
  %18 = load ptr, ptr %2, align 8
  %19 = call noundef i64 @_ZNK19XPageAllocatorStats9reclaimedEv(ptr noundef nonnull align 8 dereferenceable(72) %18)
  store i64 %19, ptr getelementptr inbounds (%"struct.XStatHeap::XAtRelocateStart", ptr @_ZN9XStatHeap18_at_relocate_startE, i32 0, i32 5), align 8
  ret void
}