; Function Attrs: mustprogress nofree norecurse nosync nounwind willreturn memory(readwrite, argmem: read, inaccessiblemem: none) uwtable
define hidden void @_ZN9XStatHeap21set_at_relocate_startERK19XPageAllocatorStats(ptr nocapture noundef nonnull readonly align 8 dereferenceable(72) %0) local_unnamed_addr #14 align 2 {
  %2 = getelementptr inbounds i8, ptr %0, i64 32
  %3 = load i64, ptr %2, align 8
  store i64 %3, ptr @_ZN9XStatHeap18_at_relocate_startE, align 8
  %4 = getelementptr inbounds i8, ptr %0, i64 40
  %5 = load i64, ptr %4, align 8
  %6 = load i64, ptr getelementptr inbounds (i8, ptr @_ZN9XStatHeap14_at_initializeE, i64 8), align 8
  %7 = sub i64 %6, %5
  store i64 %7, ptr getelementptr inbounds (i8, ptr @_ZN9XStatHeap18_at_relocate_startE, i64 8), align 8
  store i64 %5, ptr getelementptr inbounds (i8, ptr @_ZN9XStatHeap18_at_relocate_startE, i64 16), align 8
  %8 = getelementptr inbounds i8, ptr %0, i64 64
  %9 = load i64, ptr %8, align 8
  %10 = add i64 %9, %5
  %11 = load i64, ptr getelementptr inbounds (i8, ptr @_ZN9XStatHeap14_at_mark_startE, i64 24), align 8
  %12 = sub i64 %10, %11
  store i64 %12, ptr getelementptr inbounds (i8, ptr @_ZN9XStatHeap18_at_relocate_startE, i64 24), align 8
  %13 = load i64, ptr getelementptr inbounds (i8, ptr @_ZN9XStatHeap12_at_mark_endE, i64 40), align 8
  %14 = sub i64 %13, %9
  store i64 %14, ptr getelementptr inbounds (i8, ptr @_ZN9XStatHeap18_at_relocate_startE, i64 32), align 8
  store i64 %9, ptr getelementptr inbounds (i8, ptr @_ZN9XStatHeap18_at_relocate_startE, i64 40), align 8
  ret void
}